; Function Attrs: mustprogress uwtable
define hidden void @_ZN19OpenColorIO_v2_5dev14ExponentOpDataC2ERKS0_(ptr noundef nonnull align 8 dereferenceable(200) %0, ptr noundef nonnull align 8 dereferenceable(200) %1) unnamed_addr #3 align 2 personality ptr @__gxx_personality_v0 {
  tail call void @_ZN19OpenColorIO_v2_5dev6OpDataC2Ev(ptr noundef nonnull align 8 dereferenceable(168) %0)
  store ptr getelementptr inbounds nuw inrange(-16, 88) (i8, ptr @_ZTVN19OpenColorIO_v2_5dev14ExponentOpDataE, i64 16), ptr %0, align 8, !tbaa !3
  %.not = icmp eq ptr %0, %1
  br i1 %.not, label %10, label %3

3:                                                ; preds = %2
  %4 = invoke noundef nonnull align 8 dereferenceable(168) ptr @_ZN19OpenColorIO_v2_5dev6OpDataaSERKS0_(ptr noundef nonnull align 8 dereferenceable(200) %0, ptr noundef nonnull align 8 dereferenceable(200) %1)
          to label %_ZN19OpenColorIO_v2_5dev14ExponentOpDataaSERKS0_.exit unwind label %7

_ZN19OpenColorIO_v2_5dev14ExponentOpDataaSERKS0_.exit: ; preds = %3
  %5 = getelementptr inbounds nuw i8, ptr %0, i64 168
  %6 = getelementptr inbounds nuw i8, ptr %1, i64 168
  tail call void @llvm.memcpy.p0.p0.i64(ptr noundef nonnull align 8 dereferenceable(32) %5, ptr noundef nonnull align 8 dereferenceable(32) %6, i64 32, i1 false)
  br label %10

7:                                                ; preds = %3
  %8 = landingpad { ptr, i32 }
          cleanup
  store ptr getelementptr inbounds nuw inrange(-16, 88) (i8, ptr @_ZTVN19OpenColorIO_v2_5dev6OpDataE, i64 16), ptr %0, align 8, !tbaa !3
  %9 = getelementptr inbounds nuw i8, ptr %0, i64 48
  tail call void @_ZN19OpenColorIO_v2_5dev18FormatMetadataImplD1Ev(ptr noundef nonnull align 8 dereferenceable(120) %9) #26
  resume { ptr, i32 } %8

10:                                               ; preds = %_ZN19OpenColorIO_v2_5dev14ExponentOpDataaSERKS0_.exit, %2
  ret void
}